; Function Attrs: mustprogress nounwind uwtable
define internal fastcc void @_ZN12_GLOBAL__N_111StmtPrinter24VisitExpressionTraitExprEPN5clang19ExpressionTraitExprE(ptr noundef nonnull align 8 dereferenceable(80) %0, ptr noundef readonly captures(none) %1) unnamed_addr #0 align 2 {
  %3 = load ptr, ptr %0, align 8
  %4 = getelementptr inbounds nuw i8, ptr %1, i64 16
  %5 = load i32, ptr %4, align 8
  %6 = and i32 %5, 2147483647
  %7 = tail call noundef ptr @_ZN5clang16getTraitSpellingENS_15ExpressionTraitE(i32 noundef %6) #21
  %.not.i.i = icmp eq ptr %7, null
  br i1 %.not.i.i, label %_ZN4llvm11raw_ostreamlsEPKc.exit, label %_ZN4llvm9StringRefC2EPKc.exit.i

_ZN4llvm9StringRefC2EPKc.exit.i:                  ; preds = %2
  %8 = tail call noundef i64 @strlen(ptr noundef nonnull dereferenceable(1) %7) #19
  %9 = getelementptr inbounds nuw i8, ptr %3, i64 24
  %10 = load ptr, ptr %9, align 8
  %11 = getelementptr inbounds nuw i8, ptr %3, i64 32
  %12 = load ptr, ptr %11, align 8
  %13 = ptrtoint ptr %10 to i64
  %14 = ptrtoint ptr %12 to i64
  %15 = sub i64 %13, %14
  %16 = icmp ugt i64 %8, %15
  br i1 %16, label %17, label %19

17:                                               ; preds = %_ZN4llvm9StringRefC2EPKc.exit.i
  %18 = tail call noundef nonnull align 8 dereferenceable(48) ptr @_ZN4llvm11raw_ostream5writeEPKcm(ptr noundef nonnull align 8 dereferenceable(48) %3, ptr noundef nonnull %7, i64 noundef %8) #19
  br label %_ZN4llvm11raw_ostreamlsEPKc.exit

19:                                               ; preds = %_ZN4llvm9StringRefC2EPKc.exit.i
  %.not.i2.i = icmp eq i64 %8, 0
  br i1 %.not.i2.i, label %_ZN4llvm11raw_ostreamlsEPKc.exit, label %20

20:                                               ; preds = %19
  tail call void @llvm.memcpy.p0.p0.i64(ptr align 1 %12, ptr nonnull align 1 %7, i64 %8, i1 false)
  %21 = load ptr, ptr %11, align 8
  %22 = getelementptr inbounds i8, ptr %21, i64 %8
  store ptr %22, ptr %11, align 8
  br label %_ZN4llvm11raw_ostreamlsEPKc.exit

_ZN4llvm11raw_ostreamlsEPKc.exit:                 ; preds = %2, %17, %19, %20
  %.0.i.i = phi ptr [ %18, %17 ], [ %3, %20 ], [ %3, %19 ], [ %3, %2 ]
  %23 = getelementptr inbounds nuw i8, ptr %.0.i.i, i64 32
  %24 = load ptr, ptr %23, align 8
  %25 = getelementptr inbounds nuw i8, ptr %.0.i.i, i64 24
  %26 = load ptr, ptr %25, align 8
  %.not.i = icmp ult ptr %24, %26
  br i1 %.not.i, label %29, label %27

27:                                               ; preds = %_ZN4llvm11raw_ostreamlsEPKc.exit
  %28 = tail call noundef nonnull align 8 dereferenceable(48) ptr @_ZN4llvm11raw_ostream5writeEh(ptr noundef nonnull align 8 dereferenceable(48) %.0.i.i, i8 noundef zeroext 40) #19
  br label %_ZN4llvm11raw_ostreamlsEc.exit

29:                                               ; preds = %_ZN4llvm11raw_ostreamlsEPKc.exit
  %30 = getelementptr inbounds nuw i8, ptr %24, i64 1
  store ptr %30, ptr %23, align 8
  store i8 40, ptr %24, align 1
  br label %_ZN4llvm11raw_ostreamlsEc.exit

_ZN4llvm11raw_ostreamlsEc.exit:                   ; preds = %27, %29
  %31 = getelementptr inbounds nuw i8, ptr %1, i64 32
  %32 = load ptr, ptr %31, align 8
  %.not.i3 = icmp eq ptr %32, null
  br i1 %.not.i3, label %43, label %33

33:                                               ; preds = %_ZN4llvm11raw_ostreamlsEc.exit
  %34 = getelementptr inbounds nuw i8, ptr %0, i64 16
  %35 = load ptr, ptr %34, align 8
  %.not.i11 = icmp eq ptr %35, null
  br i1 %.not.i11, label %42, label %36

36:                                               ; preds = %33
  %37 = load ptr, ptr %0, align 8
  %38 = load ptr, ptr %35, align 8
  %39 = getelementptr inbounds nuw i8, ptr %38, i64 16
  %40 = load ptr, ptr %39, align 8
  %41 = tail call noundef zeroext i1 %40(ptr noundef nonnull align 8 dereferenceable(8) %35, ptr noundef nonnull %32, ptr noundef nonnull align 8 dereferenceable(48) %37) #19
  br i1 %41, label %_ZN12_GLOBAL__N_111StmtPrinter9PrintExprEPN5clang4ExprE.exit, label %42

42:                                               ; preds = %36, %33
  tail call fastcc void @_ZN5clang15StmtVisitorBaseISt11add_pointerN12_GLOBAL__N_111StmtPrinterEvJEE5VisitEPNS_4StmtE(ptr noundef nonnull align 8 dereferenceable(80) %0, ptr noundef nonnull %32)
  br label %_ZN12_GLOBAL__N_111StmtPrinter9PrintExprEPN5clang4ExprE.exit

43:                                               ; preds = %_ZN4llvm11raw_ostreamlsEc.exit
  %44 = load ptr, ptr %0, align 8
  %45 = getelementptr inbounds nuw i8, ptr %44, i64 24
  %46 = load ptr, ptr %45, align 8
  %47 = getelementptr inbounds nuw i8, ptr %44, i64 32
  %48 = load ptr, ptr %47, align 8
  %49 = ptrtoint ptr %46 to i64
  %50 = ptrtoint ptr %48 to i64
  %51 = sub i64 %49, %50
  %52 = icmp ult i64 %51, 11
  br i1 %52, label %53, label %55

53:                                               ; preds = %43
  %54 = tail call noundef nonnull align 8 dereferenceable(48) ptr @_ZN4llvm11raw_ostream5writeEPKcm(ptr noundef nonnull align 8 dereferenceable(48) %44, ptr noundef nonnull @.str.4, i64 noundef 11) #19
  br label %_ZN12_GLOBAL__N_111StmtPrinter9PrintExprEPN5clang4ExprE.exit

55:                                               ; preds = %43
  tail call void @llvm.memcpy.p0.p0.i64(ptr noundef nonnull align 1 dereferenceable(11) %48, ptr noundef nonnull align 1 dereferenceable(11) @.str.4, i64 11, i1 false)
  %56 = load ptr, ptr %47, align 8
  %57 = getelementptr inbounds nuw i8, ptr %56, i64 11
  store ptr %57, ptr %47, align 8
  br label %_ZN12_GLOBAL__N_111StmtPrinter9PrintExprEPN5clang4ExprE.exit

_ZN12_GLOBAL__N_111StmtPrinter9PrintExprEPN5clang4ExprE.exit: ; preds = %55, %53, %42, %36
  %58 = load ptr, ptr %0, align 8
  %59 = getelementptr inbounds nuw i8, ptr %58, i64 32
  %60 = load ptr, ptr %59, align 8
  %61 = getelementptr inbounds nuw i8, ptr %58, i64 24
  %62 = load ptr, ptr %61, align 8
  %.not.i4 = icmp ult ptr %60, %62
  br i1 %.not.i4, label %65, label %63

63:                                               ; preds = %_ZN12_GLOBAL__N_111StmtPrinter9PrintExprEPN5clang4ExprE.exit
  %64 = tail call noundef nonnull align 8 dereferenceable(48) ptr @_ZN4llvm11raw_ostream5writeEh(ptr noundef nonnull align 8 dereferenceable(48) %58, i8 noundef zeroext 41) #19
  br label %_ZN4llvm11raw_ostreamlsEc.exit6

65:                                               ; preds = %_ZN12_GLOBAL__N_111StmtPrinter9PrintExprEPN5clang4ExprE.exit
  %66 = getelementptr inbounds nuw i8, ptr %60, i64 1
  store ptr %66, ptr %59, align 8
  store i8 41, ptr %60, align 1
  br label %_ZN4llvm11raw_ostreamlsEc.exit6

_ZN4llvm11raw_ostreamlsEc.exit6:                  ; preds = %63, %65
  ret void
}